CCS PCM C Compiler, Version 5.070, 56587               18-oct.-17 12:15

               Filename:   C:\uControl\PIC16F886\I2C_MCP3221\Main.lst

               ROM used:   1088 words (13%)
                           Largest free fragment is 2048
               RAM used:   21 (6%) at main() level
                           46 (12%) worst case
               Stack used: 2 locations
               Stack size: 8

*
0000:  MOVLW  03
0001:  MOVWF  0A
0002:  GOTO   337
0003:  NOP
.................... #include <16F886.h> 
.................... //////////// Standard Header file for the PIC16F886 device //////////////// 
.................... /////////////////////////////////////////////////////////////////////////// 
.................... ////        (C) Copyright 1996, 2014 Custom Computer Services          //// 
.................... //// This source code may only be used by licensed users of the CCS C  //// 
.................... //// compiler.  This source code may only be distributed to other      //// 
.................... //// licensed users of the CCS C compiler.  No other use, reproduction //// 
.................... //// or distribution is permitted without written permission.          //// 
.................... //// Derivative programs created using this software in object code    //// 
.................... //// form are not restricted in any way.                               //// 
.................... /////////////////////////////////////////////////////////////////////////// 
.................... #device PIC16F886 
0004:  DATA C4,32
0005:  DATA F6,34
0006:  DATA E3,32
0007:  DATA A0,37
0008:  DATA 6B,05
0009:  DATA 0D,00
000A:  DATA 49,37
000B:  DATA 69,3A
000C:  DATA 20,29
000D:  DATA E5,30
000E:  DATA E4,34
000F:  DATA EE,33
0010:  DATA 8A,06
0011:  DATA 00,01
0012:  DATA C4,30
0013:  DATA F4,30
0014:  DATA A0,1E
0015:  DATA A0,12
0016:  DATA CC,2A
0017:  DATA 8A,06
0018:  DATA 00,00
0019:  DATA C3,37
001A:  DATA 6E,3B
001B:  DATA 31,10
001C:  DATA 3D,10
001D:  DATA 25,18
001E:  DATA AE,18
001F:  DATA 66,10
0020:  DATA 56,32
0021:  DATA 63,05
0022:  DATA 0D,00
0023:  DATA C3,37
0024:  DATA 6E,3B
0025:  DATA 32,10
0026:  DATA 3D,10
0027:  DATA 25,18
0028:  DATA AE,18
0029:  DATA 66,10
002A:  DATA 56,32
002B:  DATA 63,05
002C:  DATA 0D,00
002D:  MOVF   0B,W
002E:  MOVWF  2F
002F:  BCF    0B.7
0030:  BSF    03.5
0031:  BSF    03.6
0032:  BSF    0C.7
0033:  BSF    0C.0
0034:  NOP
0035:  NOP
0036:  BCF    03.5
0037:  BCF    03.6
0038:  BTFSC  2F.7
0039:  BSF    0B.7
003A:  BSF    03.6
003B:  MOVF   0C,W
003C:  ANDLW  7F
003D:  BTFSC  03.2
003E:  GOTO   083
003F:  BCF    03.6
0040:  MOVWF  2F
0041:  BSF    03.6
0042:  MOVF   0D,W
0043:  BCF    03.6
0044:  MOVWF  30
0045:  BSF    03.6
0046:  MOVF   0F,W
0047:  BCF    03.6
0048:  MOVWF  31
0049:  MOVF   2F,W
004A:  BTFSS  0C.4
004B:  GOTO   04A
004C:  MOVWF  19
004D:  MOVF   30,W
004E:  BSF    03.6
004F:  MOVWF  0D
0050:  BCF    03.6
0051:  MOVF   31,W
0052:  BSF    03.6
0053:  MOVWF  0F
0054:  BCF    03.6
0055:  MOVF   0B,W
0056:  MOVWF  32
0057:  BCF    0B.7
0058:  BSF    03.5
0059:  BSF    03.6
005A:  BSF    0C.7
005B:  BSF    0C.0
005C:  NOP
005D:  NOP
005E:  BCF    03.5
005F:  BCF    03.6
0060:  BTFSC  32.7
0061:  BSF    0B.7
0062:  BSF    03.6
0063:  RLF    0C,W
0064:  RLF    0E,W
0065:  ANDLW  7F
0066:  BTFSC  03.2
0067:  GOTO   083
0068:  BCF    03.6
0069:  MOVWF  2F
006A:  BSF    03.6
006B:  MOVF   0D,W
006C:  BCF    03.6
006D:  MOVWF  30
006E:  BSF    03.6
006F:  MOVF   0F,W
0070:  BCF    03.6
0071:  MOVWF  31
0072:  MOVF   2F,W
0073:  BTFSS  0C.4
0074:  GOTO   073
0075:  MOVWF  19
0076:  MOVF   30,W
0077:  BSF    03.6
0078:  MOVWF  0D
0079:  BCF    03.6
007A:  MOVF   31,W
007B:  BSF    03.6
007C:  MOVWF  0F
007D:  INCF   0D,F
007E:  BTFSC  03.2
007F:  INCF   0F,F
0080:  BCF    03.6
0081:  GOTO   02D
0082:  BSF    03.6
0083:  BCF    03.6
0084:  RETURN
*
00BE:  MOVF   0B,W
00BF:  MOVWF  30
00C0:  BCF    0B.7
00C1:  BSF    03.5
00C2:  BSF    03.6
00C3:  BSF    0C.7
00C4:  BSF    0C.0
00C5:  NOP
00C6:  NOP
00C7:  BCF    03.5
00C8:  BCF    03.6
00C9:  BTFSC  30.7
00CA:  BSF    0B.7
00CB:  BTFSC  03.0
00CC:  GOTO   0F6
00CD:  BSF    03.6
00CE:  MOVF   0C,W
00CF:  ANDLW  7F
00D0:  BCF    03.6
00D1:  MOVWF  30
00D2:  BSF    03.6
00D3:  MOVF   0D,W
00D4:  BCF    03.6
00D5:  MOVWF  31
00D6:  BSF    03.6
00D7:  MOVF   0F,W
00D8:  BCF    03.6
00D9:  MOVWF  32
00DA:  MOVF   30,W
00DB:  BTFSS  0C.4
00DC:  GOTO   0DB
00DD:  MOVWF  19
00DE:  MOVF   31,W
00DF:  BSF    03.6
00E0:  MOVWF  0D
00E1:  BCF    03.6
00E2:  MOVF   32,W
00E3:  BSF    03.6
00E4:  MOVWF  0F
00E5:  BCF    03.6
00E6:  MOVF   0B,W
00E7:  MOVWF  33
00E8:  BCF    0B.7
00E9:  BSF    03.5
00EA:  BSF    03.6
00EB:  BSF    0C.7
00EC:  BSF    0C.0
00ED:  NOP
00EE:  NOP
00EF:  BCF    03.5
00F0:  BCF    03.6
00F1:  BTFSC  33.7
00F2:  BSF    0B.7
00F3:  DECFSZ 2F,F
00F4:  GOTO   0F6
00F5:  GOTO   116
00F6:  BSF    03.6
00F7:  RLF    0C,W
00F8:  RLF    0E,W
00F9:  ANDLW  7F
00FA:  BCF    03.6
00FB:  MOVWF  30
00FC:  BSF    03.6
00FD:  MOVF   0D,W
00FE:  BCF    03.6
00FF:  MOVWF  31
0100:  BSF    03.6
0101:  MOVF   0F,W
0102:  BCF    03.6
0103:  MOVWF  32
0104:  MOVF   30,W
0105:  BTFSS  0C.4
0106:  GOTO   105
0107:  MOVWF  19
0108:  MOVF   31,W
0109:  BSF    03.6
010A:  MOVWF  0D
010B:  BCF    03.6
010C:  MOVF   32,W
010D:  BSF    03.6
010E:  MOVWF  0F
010F:  INCF   0D,F
0110:  BTFSC  03.2
0111:  INCF   0F,F
0112:  BCF    03.0
0113:  BCF    03.6
0114:  DECFSZ 2F,F
0115:  GOTO   0BE
0116:  RETURN
0117:  CLRF   37
0118:  MOVF   04,W
0119:  MOVWF  36
011A:  BCF    37.0
011B:  BTFSC  03.7
011C:  BSF    37.0
011D:  SWAPF  30,W
011E:  IORLW  F0
011F:  MOVWF  32
0120:  ADDWF  32,F
0121:  ADDLW  E2
0122:  MOVWF  33
0123:  ADDLW  32
0124:  MOVWF  35
0125:  MOVF   30,W
0126:  ANDLW  0F
0127:  ADDWF  33,F
0128:  ADDWF  33,F
0129:  ADDWF  35,F
012A:  ADDLW  E9
012B:  MOVWF  34
012C:  ADDWF  34,F
012D:  ADDWF  34,F
012E:  SWAPF  2F,W
012F:  ANDLW  0F
0130:  ADDWF  34,F
0131:  ADDWF  35,F
0132:  RLF    34,F
0133:  RLF    35,F
0134:  COMF   35,F
0135:  RLF    35,F
0136:  MOVF   2F,W
0137:  ANDLW  0F
0138:  ADDWF  35,F
0139:  RLF    32,F
013A:  MOVLW  07
013B:  MOVWF  31
013C:  MOVLW  0A
013D:  ADDWF  35,F
013E:  DECF   34,F
013F:  BTFSS  03.0
0140:  GOTO   13D
0141:  ADDWF  34,F
0142:  DECF   33,F
0143:  BTFSS  03.0
0144:  GOTO   141
0145:  ADDWF  33,F
0146:  DECF   32,F
0147:  BTFSS  03.0
0148:  GOTO   145
0149:  ADDWF  32,F
014A:  DECF   31,F
014B:  BTFSS  03.0
014C:  GOTO   149
014D:  MOVLW  31
014E:  MOVWF  04
014F:  BCF    03.7
0150:  MOVLW  07
0151:  ANDWF  36,W
0152:  BCF    36.6
0153:  ADDWF  04,F
0154:  MOVLW  35
0155:  SUBWF  04,W
0156:  BTFSC  03.2
0157:  BSF    36.6
0158:  MOVF   00,W
0159:  MOVWF  77
015A:  BTFSS  03.2
015B:  GOTO   164
015C:  BTFSC  36.6
015D:  GOTO   164
015E:  BTFSC  36.4
015F:  GOTO   16C
0160:  BTFSC  36.3
0161:  GOTO   164
0162:  MOVLW  20
0163:  GOTO   167
0164:  BSF    36.3
0165:  BCF    36.4
0166:  MOVLW  30
0167:  ADDWF  77,F
0168:  MOVF   77,W
0169:  BTFSS  0C.4
016A:  GOTO   169
016B:  MOVWF  19
016C:  INCF   04,F
016D:  BTFSS  36.6
016E:  GOTO   154
016F:  BCF    0A.3
0170:  BCF    0A.4
0171:  GOTO   3BB (RETURN)
0172:  MOVLW  8E
0173:  MOVWF  77
0174:  MOVF   30,W
0175:  MOVWF  78
0176:  MOVF   2F,W
0177:  MOVWF  79
0178:  CLRF   7A
0179:  MOVF   78,F
017A:  BTFSS  03.2
017B:  GOTO   186
017C:  MOVF   79,W
017D:  MOVWF  78
017E:  CLRF   79
017F:  MOVLW  08
0180:  SUBWF  77,F
0181:  MOVF   78,F
0182:  BTFSS  03.2
0183:  GOTO   186
0184:  CLRF   77
0185:  GOTO   18E
0186:  BCF    03.0
0187:  BTFSC  78.7
0188:  GOTO   18D
0189:  RLF    79,F
018A:  RLF    78,F
018B:  DECF   77,F
018C:  GOTO   186
018D:  BCF    78.7
018E:  RETURN
018F:  MOVF   3C,W
0190:  BTFSC  03.2
0191:  GOTO   1FF
0192:  MOVWF  44
0193:  MOVF   40,W
0194:  BTFSC  03.2
0195:  GOTO   1FF
0196:  ADDWF  44,F
0197:  BTFSC  03.0
0198:  GOTO   1A0
0199:  MOVLW  7F
019A:  SUBWF  44,F
019B:  BTFSS  03.0
019C:  GOTO   1FF
019D:  BTFSC  03.2
019E:  GOTO   1FF
019F:  GOTO   1A4
01A0:  MOVLW  81
01A1:  ADDWF  44,F
01A2:  BTFSC  03.0
01A3:  GOTO   1FF
01A4:  MOVF   44,W
01A5:  MOVWF  77
01A6:  CLRF   78
01A7:  CLRF   79
01A8:  CLRF   7A
01A9:  MOVF   3D,W
01AA:  MOVWF  48
01AB:  BSF    48.7
01AC:  MOVF   3E,W
01AD:  MOVWF  47
01AE:  MOVF   3F,W
01AF:  MOVWF  46
01B0:  MOVLW  18
01B1:  MOVWF  44
01B2:  CLRF   45
01B3:  BTFSS  46.0
01B4:  GOTO   1CD
01B5:  MOVF   43,W
01B6:  ADDWF  7A,F
01B7:  BTFSS  03.0
01B8:  GOTO   1BF
01B9:  INCF   79,F
01BA:  BTFSS  03.2
01BB:  GOTO   1BF
01BC:  INCF   78,F
01BD:  BTFSC  03.2
01BE:  BSF    45.7
01BF:  MOVF   42,W
01C0:  ADDWF  79,F
01C1:  BTFSS  03.0
01C2:  GOTO   1C6
01C3:  INCF   78,F
01C4:  BTFSC  03.2
01C5:  BSF    45.7
01C6:  MOVF   41,W
01C7:  MOVWF  3E
01C8:  BSF    3E.7
01C9:  MOVF   3E,W
01CA:  ADDWF  78,F
01CB:  BTFSC  03.0
01CC:  BSF    45.7
01CD:  RLF    45,F
01CE:  RRF    78,F
01CF:  RRF    79,F
01D0:  RRF    7A,F
01D1:  RRF    48,F
01D2:  RRF    47,F
01D3:  RRF    46,F
01D4:  BCF    03.0
01D5:  DECFSZ 44,F
01D6:  GOTO   1B2
01D7:  MOVLW  01
01D8:  ADDWF  77,F
01D9:  BTFSC  03.0
01DA:  GOTO   1FF
01DB:  BTFSC  78.7
01DC:  GOTO   1E4
01DD:  RLF    48,F
01DE:  RLF    7A,F
01DF:  RLF    79,F
01E0:  RLF    78,F
01E1:  DECF   77,F
01E2:  BTFSC  03.2
01E3:  GOTO   1FF
01E4:  BTFSS  48.7
01E5:  GOTO   1F5
01E6:  INCF   7A,F
01E7:  BTFSS  03.2
01E8:  GOTO   1F5
01E9:  INCF   79,F
01EA:  BTFSS  03.2
01EB:  GOTO   1F5
01EC:  INCF   78,F
01ED:  BTFSS  03.2
01EE:  GOTO   1F5
01EF:  RRF    78,F
01F0:  RRF    79,F
01F1:  RRF    7A,F
01F2:  INCF   77,F
01F3:  BTFSC  03.2
01F4:  GOTO   1FF
01F5:  MOVF   3D,W
01F6:  MOVWF  45
01F7:  MOVF   41,W
01F8:  XORWF  45,F
01F9:  BTFSS  45.7
01FA:  GOTO   1FD
01FB:  BSF    78.7
01FC:  GOTO   203
01FD:  BCF    78.7
01FE:  GOTO   203
01FF:  CLRF   77
0200:  CLRF   78
0201:  CLRF   79
0202:  CLRF   7A
0203:  RETURN
0204:  BTFSC  03.1
0205:  GOTO   209
0206:  MOVLW  44
0207:  MOVWF  04
0208:  BCF    03.7
0209:  CLRF   77
020A:  CLRF   78
020B:  CLRF   79
020C:  CLRF   7A
020D:  CLRF   44
020E:  CLRF   45
020F:  CLRF   46
0210:  CLRF   47
0211:  MOVF   43,W
0212:  IORWF  42,W
0213:  IORWF  41,W
0214:  IORWF  40,W
0215:  BTFSC  03.2
0216:  GOTO   247
0217:  MOVLW  20
0218:  MOVWF  48
0219:  BCF    03.0
021A:  RLF    3C,F
021B:  RLF    3D,F
021C:  RLF    3E,F
021D:  RLF    3F,F
021E:  RLF    44,F
021F:  RLF    45,F
0220:  RLF    46,F
0221:  RLF    47,F
0222:  MOVF   43,W
0223:  SUBWF  47,W
0224:  BTFSS  03.2
0225:  GOTO   230
0226:  MOVF   42,W
0227:  SUBWF  46,W
0228:  BTFSS  03.2
0229:  GOTO   230
022A:  MOVF   41,W
022B:  SUBWF  45,W
022C:  BTFSS  03.2
022D:  GOTO   230
022E:  MOVF   40,W
022F:  SUBWF  44,W
0230:  BTFSS  03.0
0231:  GOTO   241
0232:  MOVF   40,W
0233:  SUBWF  44,F
0234:  MOVF   41,W
0235:  BTFSS  03.0
0236:  INCFSZ 41,W
0237:  SUBWF  45,F
0238:  MOVF   42,W
0239:  BTFSS  03.0
023A:  INCFSZ 42,W
023B:  SUBWF  46,F
023C:  MOVF   43,W
023D:  BTFSS  03.0
023E:  INCFSZ 43,W
023F:  SUBWF  47,F
0240:  BSF    03.0
0241:  RLF    77,F
0242:  RLF    78,F
0243:  RLF    79,F
0244:  RLF    7A,F
0245:  DECFSZ 48,F
0246:  GOTO   219
0247:  MOVF   44,W
0248:  MOVWF  00
0249:  INCF   04,F
024A:  MOVF   45,W
024B:  MOVWF  00
024C:  INCF   04,F
024D:  MOVF   46,W
024E:  MOVWF  00
024F:  INCF   04,F
0250:  MOVF   47,W
0251:  MOVWF  00
0252:  RETURN
0253:  MOVF   04,W
0254:  MOVWF  34
0255:  MOVF   33,W
0256:  MOVWF  36
0257:  BTFSC  03.2
0258:  GOTO   272
0259:  MOVF   32,W
025A:  MOVWF  3F
025B:  MOVF   31,W
025C:  MOVWF  3E
025D:  MOVF   30,W
025E:  MOVWF  3D
025F:  MOVF   2F,W
0260:  MOVWF  3C
0261:  CLRF   43
0262:  CLRF   42
0263:  MOVLW  20
0264:  MOVWF  41
0265:  MOVLW  82
0266:  MOVWF  40
0267:  CALL   18F
0268:  MOVF   7A,W
0269:  MOVWF  32
026A:  MOVF   79,W
026B:  MOVWF  31
026C:  MOVF   78,W
026D:  MOVWF  30
026E:  MOVF   77,W
026F:  MOVWF  2F
0270:  DECFSZ 36,F
0271:  GOTO   259
0272:  MOVF   32,W
0273:  MOVWF  3F
0274:  MOVF   31,W
0275:  MOVWF  3E
0276:  MOVF   30,W
0277:  MOVWF  3D
0278:  MOVF   2F,W
0279:  MOVWF  3C
027A:  MOVF   3C,W
027B:  SUBLW  B6
027C:  MOVWF  3C
027D:  CLRF   7A
027E:  MOVF   3D,W
027F:  MOVWF  40
0280:  BSF    3D.7
0281:  BCF    03.0
0282:  RRF    3D,F
0283:  RRF    3E,F
0284:  RRF    3F,F
0285:  RRF    7A,F
0286:  RRF    79,F
0287:  RRF    78,F
0288:  RRF    77,F
0289:  DECFSZ 3C,F
028A:  GOTO   281
028B:  BTFSS  40.7
028C:  GOTO   298
028D:  COMF   77,F
028E:  COMF   78,F
028F:  COMF   79,F
0290:  COMF   7A,F
0291:  INCF   77,F
0292:  BTFSC  03.2
0293:  INCF   78,F
0294:  BTFSC  03.2
0295:  INCF   79,F
0296:  BTFSC  03.2
0297:  INCF   7A,F
0298:  MOVF   7A,W
0299:  MOVWF  32
029A:  MOVF   79,W
029B:  MOVWF  31
029C:  MOVF   78,W
029D:  MOVWF  30
029E:  MOVF   77,W
029F:  MOVWF  2F
02A0:  BTFSS  32.7
02A1:  GOTO   2AF
02A2:  DECF   34,F
02A3:  BSF    34.5
02A4:  COMF   2F,F
02A5:  COMF   30,F
02A6:  COMF   31,F
02A7:  COMF   32,F
02A8:  INCF   2F,F
02A9:  BTFSC  03.2
02AA:  INCF   30,F
02AB:  BTFSC  03.2
02AC:  INCF   31,F
02AD:  BTFSC  03.2
02AE:  INCF   32,F
02AF:  MOVLW  3B
02B0:  MOVWF  3B
02B1:  MOVLW  9A
02B2:  MOVWF  3A
02B3:  MOVLW  CA
02B4:  MOVWF  39
02B5:  CLRF   38
02B6:  MOVLW  0A
02B7:  MOVWF  36
02B8:  MOVF   33,W
02B9:  BTFSC  03.2
02BA:  INCF   34,F
02BB:  BSF    03.1
02BC:  MOVLW  2F
02BD:  MOVWF  04
02BE:  BCF    03.7
02BF:  MOVF   32,W
02C0:  MOVWF  3F
02C1:  MOVF   31,W
02C2:  MOVWF  3E
02C3:  MOVF   30,W
02C4:  MOVWF  3D
02C5:  MOVF   2F,W
02C6:  MOVWF  3C
02C7:  MOVF   3B,W
02C8:  MOVWF  43
02C9:  MOVF   3A,W
02CA:  MOVWF  42
02CB:  MOVF   39,W
02CC:  MOVWF  41
02CD:  MOVF   38,W
02CE:  MOVWF  40
02CF:  CALL   204
02D0:  MOVF   78,W
02D1:  MOVF   77,F
02D2:  BTFSS  03.2
02D3:  GOTO   2E7
02D4:  INCF   33,W
02D5:  SUBWF  36,W
02D6:  BTFSC  03.2
02D7:  GOTO   2E7
02D8:  MOVF   34,W
02D9:  BTFSC  03.2
02DA:  GOTO   2E9
02DB:  ANDLW  0F
02DC:  SUBWF  36,W
02DD:  BTFSC  03.2
02DE:  GOTO   2E1
02DF:  BTFSC  03.0
02E0:  GOTO   31D
02E1:  BTFSC  34.7
02E2:  GOTO   31D
02E3:  BTFSC  34.6
02E4:  GOTO   2E9
02E5:  MOVLW  20
02E6:  GOTO   318
02E7:  MOVLW  20
02E8:  ANDWF  34,F
02E9:  BTFSS  34.5
02EA:  GOTO   2F8
02EB:  BCF    34.5
02EC:  MOVF   33,W
02ED:  BTFSS  03.2
02EE:  DECF   34,F
02EF:  MOVF   77,W
02F0:  MOVWF  34
02F1:  MOVLW  2D
02F2:  BTFSS  0C.4
02F3:  GOTO   2F2
02F4:  MOVWF  19
02F5:  MOVF   34,W
02F6:  MOVWF  77
02F7:  CLRF   34
02F8:  MOVF   33,W
02F9:  SUBWF  36,W
02FA:  BTFSS  03.2
02FB:  GOTO   307
02FC:  MOVF   77,W
02FD:  MOVWF  34
02FE:  MOVLW  2E
02FF:  BTFSS  0C.4
0300:  GOTO   2FF
0301:  MOVWF  19
0302:  MOVF   34,W
0303:  MOVWF  77
0304:  MOVLW  20
0305:  ANDWF  34,F
0306:  MOVLW  00
0307:  MOVLW  30
0308:  BTFSS  34.5
0309:  GOTO   318
030A:  BCF    34.5
030B:  MOVF   33,W
030C:  BTFSS  03.2
030D:  DECF   34,F
030E:  MOVF   77,W
030F:  MOVWF  34
0310:  MOVLW  2D
0311:  BTFSS  0C.4
0312:  GOTO   311
0313:  MOVWF  19
0314:  MOVF   34,W
0315:  MOVWF  77
0316:  CLRF   34
0317:  MOVLW  30
0318:  ADDWF  77,F
0319:  MOVF   77,W
031A:  BTFSS  0C.4
031B:  GOTO   31A
031C:  MOVWF  19
031D:  BCF    03.1
031E:  MOVF   3B,W
031F:  MOVWF  3F
0320:  MOVF   3A,W
0321:  MOVWF  3E
0322:  MOVF   39,W
0323:  MOVWF  3D
0324:  MOVF   38,W
0325:  MOVWF  3C
0326:  CLRF   43
0327:  CLRF   42
0328:  CLRF   41
0329:  MOVLW  0A
032A:  MOVWF  40
032B:  CALL   204
032C:  MOVF   7A,W
032D:  MOVWF  3B
032E:  MOVF   79,W
032F:  MOVWF  3A
0330:  MOVF   78,W
0331:  MOVWF  39
0332:  MOVF   77,W
0333:  MOVWF  38
0334:  DECFSZ 36,F
0335:  GOTO   2BB
0336:  RETURN
....................  
.................... #list 
....................  
....................  
.................... #fuses INTRC,NOWDT,NOPROTECT,NOLVP 
.................... #use delay(internal=4M) 
*
0085:  MOVLW  30
0086:  MOVWF  04
0087:  BCF    03.7
0088:  MOVF   00,W
0089:  BTFSC  03.2
008A:  GOTO   099
008B:  MOVLW  01
008C:  MOVWF  78
008D:  CLRF   77
008E:  DECFSZ 77,F
008F:  GOTO   08E
0090:  DECFSZ 78,F
0091:  GOTO   08D
0092:  MOVLW  4A
0093:  MOVWF  77
0094:  DECFSZ 77,F
0095:  GOTO   094
0096:  GOTO   097
0097:  DECFSZ 00,F
0098:  GOTO   08B
0099:  BCF    0A.3
009A:  BCF    0A.4
009B:  GOTO   38A (RETURN)
....................  
.................... #use i2c(MASTER, SDA=PIN_C4, SCL=PIN_C3, FAST=400000, FORCE_HW) 
009C:  BCF    14.7
009D:  BCF    0C.3
009E:  MOVF   2F,W
009F:  MOVWF  13
00A0:  MOVLW  02
00A1:  BTFSC  14.7
00A2:  GOTO   0AA
00A3:  BTFSS  0C.3
00A4:  GOTO   0A3
00A5:  MOVLW  00
00A6:  BSF    03.5
00A7:  BTFSC  11.6
00A8:  MOVLW  01
00A9:  BCF    03.5
00AA:  MOVWF  78
00AB:  BCF    0A.3
00AC:  BCF    0A.4
00AD:  GOTO   394 (RETURN)
00AE:  BCF    14.6
00AF:  BSF    03.5
00B0:  BSF    11.3
00B1:  BTFSC  11.3
00B2:  GOTO   0B1
00B3:  BTFSC  77.0
00B4:  BCF    11.5
00B5:  BTFSS  77.0
00B6:  BSF    11.5
00B7:  BSF    11.4
00B8:  BTFSC  11.4
00B9:  GOTO   0B8
00BA:  BCF    03.5
00BB:  MOVF   13,W
00BC:  MOVWF  78
00BD:  RETURN
.................... #use rs232(BAUD=9600,RCV=PIN_C7,XMIT=PIN_C6) 
....................  
.................... #define LED PIN_B7 
....................  
.................... int MSB, LSB; 
.................... int16 ADC; 
.................... float value5, value12; 
.................... void main() 
*
0337:  MOVF   03,W
0338:  ANDLW  1F
0339:  MOVWF  03
033A:  MOVLW  61
033B:  BSF    03.5
033C:  MOVWF  0F
033D:  CLRF   10
033E:  MOVF   0F,W
033F:  MOVLW  FF
0340:  BCF    03.5
0341:  MOVWF  20
0342:  BSF    20.3
0343:  MOVF   20,W
0344:  BSF    03.5
0345:  MOVWF  07
0346:  BCF    03.5
0347:  BSF    20.4
0348:  MOVF   20,W
0349:  BSF    03.5
034A:  MOVWF  07
034B:  MOVLW  02
034C:  MOVWF  13
034D:  MOVLW  28
034E:  BCF    03.5
034F:  MOVWF  14
0350:  BSF    03.5
0351:  BCF    14.7
0352:  BCF    14.6
0353:  BSF    03.6
0354:  BCF    07.3
0355:  MOVLW  19
0356:  BCF    03.6
0357:  MOVWF  19
0358:  MOVLW  A6
0359:  MOVWF  18
035A:  MOVLW  90
035B:  BCF    03.5
035C:  MOVWF  18
035D:  CLRF   2E
035E:  CLRF   2D
035F:  BSF    03.5
0360:  BSF    03.6
0361:  MOVF   09,W
0362:  ANDLW  C0
0363:  MOVWF  09
0364:  BCF    03.6
0365:  BCF    1F.4
0366:  BCF    1F.5
0367:  MOVLW  00
0368:  BSF    03.6
0369:  MOVWF  08
036A:  BCF    03.5
036B:  CLRF   07
036C:  CLRF   08
036D:  CLRF   09
036E:  BCF    03.7
....................    { 
....................     printf("Device ok\n\r"); 
036F:  MOVLW  04
0370:  MOVWF  0D
0371:  MOVLW  00
0372:  MOVWF  0F
0373:  BCF    03.6
0374:  CALL   02D
.................... 	set_tris_b(0b00000000); 
0375:  MOVLW  00
0376:  BSF    03.5
0377:  MOVWF  06
....................  
.................... 	printf("Init Reading\n\r"); 
0378:  MOVLW  0A
0379:  BCF    03.5
037A:  BSF    03.6
037B:  MOVWF  0D
037C:  MOVLW  00
037D:  MOVWF  0F
037E:  BCF    03.6
037F:  CALL   02D
.................... 	i2c_stop(); 
0380:  BSF    03.5
0381:  BSF    11.2
0382:  BTFSC  11.2
0383:  GOTO   382
....................  
....................    while(TRUE) 
....................       { 
....................           
....................         delay_ms(1000); 
0384:  MOVLW  04
0385:  BCF    03.5
0386:  MOVWF  2F
0387:  MOVLW  FA
0388:  MOVWF  30
0389:  GOTO   085
038A:  DECFSZ 2F,F
038B:  GOTO   387
....................         i2c_start(); 
038C:  BSF    03.5
038D:  BSF    11.0
038E:  BTFSC  11.0
038F:  GOTO   38E
....................         i2c_write(0x9B);                     // Device address 10011011 read for A5T 
0390:  MOVLW  9B
0391:  BCF    03.5
0392:  MOVWF  2F
0393:  GOTO   09C
....................         delay_us(10); 
0394:  MOVLW  03
0395:  MOVWF  77
0396:  DECFSZ 77,F
0397:  GOTO   396
....................         MSB = i2c_read(1); 
0398:  MOVLW  01
0399:  MOVWF  77
039A:  CALL   0AE
039B:  MOVF   78,W
039C:  MOVWF  21
....................         LSB = i2c_read(0); 
039D:  CLRF   77
039E:  CALL   0AE
039F:  MOVF   78,W
03A0:  MOVWF  22
....................         i2c_stop(); 
03A1:  BSF    03.5
03A2:  BSF    11.2
03A3:  BTFSC  11.2
03A4:  GOTO   3A3
....................         ADC = make16(MSB,LSB); 
03A5:  BCF    03.5
03A6:  MOVF   21,W
03A7:  MOVWF  24
03A8:  MOVF   22,W
03A9:  MOVWF  23
....................         printf("Data = %LU\n\r",ADC);  
03AA:  MOVLW  12
03AB:  BSF    03.6
03AC:  MOVWF  0D
03AD:  MOVLW  00
03AE:  MOVWF  0F
03AF:  BCF    03.0
03B0:  MOVLW  07
03B1:  BCF    03.6
03B2:  MOVWF  2F
03B3:  CALL   0BE
03B4:  MOVLW  10
03B5:  MOVWF  04
03B6:  MOVF   24,W
03B7:  MOVWF  30
03B8:  MOVF   23,W
03B9:  MOVWF  2F
03BA:  GOTO   117
03BB:  MOVLW  0A
03BC:  BTFSS  0C.4
03BD:  GOTO   3BC
03BE:  MOVWF  19
03BF:  MOVLW  0D
03C0:  BTFSS  0C.4
03C1:  GOTO   3C0
03C2:  MOVWF  19
.................... 		//conversion 
.................... 		value5 = (5.0/4096)* ADC; 
03C3:  MOVF   24,W
03C4:  MOVWF  30
03C5:  MOVF   23,W
03C6:  MOVWF  2F
03C7:  CALL   172
03C8:  CLRF   3F
03C9:  CLRF   3E
03CA:  MOVLW  20
03CB:  MOVWF  3D
03CC:  MOVLW  75
03CD:  MOVWF  3C
03CE:  MOVF   7A,W
03CF:  MOVWF  43
03D0:  MOVF   79,W
03D1:  MOVWF  42
03D2:  MOVF   78,W
03D3:  MOVWF  41
03D4:  MOVF   77,W
03D5:  MOVWF  40
03D6:  CALL   18F
03D7:  MOVF   7A,W
03D8:  MOVWF  28
03D9:  MOVF   79,W
03DA:  MOVWF  27
03DB:  MOVF   78,W
03DC:  MOVWF  26
03DD:  MOVF   77,W
03DE:  MOVWF  25
.................... 		printf("Conv1 = %0.1f Vdc\n\r",value5); 
03DF:  MOVLW  19
03E0:  BSF    03.6
03E1:  MOVWF  0D
03E2:  MOVLW  00
03E3:  MOVWF  0F
03E4:  BCF    03.0
03E5:  MOVLW  08
03E6:  BCF    03.6
03E7:  MOVWF  2F
03E8:  CALL   0BE
03E9:  MOVLW  C9
03EA:  MOVWF  04
03EB:  MOVF   28,W
03EC:  MOVWF  32
03ED:  MOVF   27,W
03EE:  MOVWF  31
03EF:  MOVF   26,W
03F0:  MOVWF  30
03F1:  MOVF   25,W
03F2:  MOVWF  2F
03F3:  MOVLW  01
03F4:  MOVWF  33
03F5:  CALL   253
03F6:  MOVLW  1F
03F7:  BSF    03.6
03F8:  MOVWF  0D
03F9:  MOVLW  00
03FA:  MOVWF  0F
03FB:  BSF    03.0
03FC:  MOVLW  06
03FD:  BCF    03.6
03FE:  MOVWF  2F
03FF:  CALL   0BE
.................... 		value12 = (12.0/4096)* ADC; 
0400:  MOVF   24,W
0401:  MOVWF  30
0402:  MOVF   23,W
0403:  MOVWF  2F
0404:  CALL   172
0405:  CLRF   3F
0406:  CLRF   3E
0407:  MOVLW  40
0408:  MOVWF  3D
0409:  MOVLW  76
040A:  MOVWF  3C
040B:  MOVF   7A,W
040C:  MOVWF  43
040D:  MOVF   79,W
040E:  MOVWF  42
040F:  MOVF   78,W
0410:  MOVWF  41
0411:  MOVF   77,W
0412:  MOVWF  40
0413:  CALL   18F
0414:  MOVF   7A,W
0415:  MOVWF  2C
0416:  MOVF   79,W
0417:  MOVWF  2B
0418:  MOVF   78,W
0419:  MOVWF  2A
041A:  MOVF   77,W
041B:  MOVWF  29
.................... 		printf("Conv2 = %0.1f Vdc\n\r",value12); 
041C:  MOVLW  23
041D:  BSF    03.6
041E:  MOVWF  0D
041F:  MOVLW  00
0420:  MOVWF  0F
0421:  BCF    03.0
0422:  MOVLW  08
0423:  BCF    03.6
0424:  MOVWF  2F
0425:  CALL   0BE
0426:  MOVLW  C9
0427:  MOVWF  04
0428:  MOVF   2C,W
0429:  MOVWF  32
042A:  MOVF   2B,W
042B:  MOVWF  31
042C:  MOVF   2A,W
042D:  MOVWF  30
042E:  MOVF   29,W
042F:  MOVWF  2F
0430:  MOVLW  01
0431:  MOVWF  33
0432:  CALL   253
0433:  MOVLW  29
0434:  BSF    03.6
0435:  MOVWF  0D
0436:  MOVLW  00
0437:  MOVWF  0F
0438:  BSF    03.0
0439:  MOVLW  06
043A:  BCF    03.6
043B:  MOVWF  2F
043C:  CALL   0BE
043D:  BSF    03.5
043E:  GOTO   384
....................       } 
.................... }  
043F:  SLEEP

Configuration Fuses:
   Word  1: 2FE4   INTRC_IO NOWDT PUT MCLR NOPROTECT NOCPD BROWNOUT IESO FCMEN NOLVP NODEBUG
   Word  2: 3FFF   BORV40 NOWRT
